; Function Attrs: mustprogress uwtable
define noundef ptr @jsonnet_fmt_snippet(ptr noundef %0, ptr noundef %1, ptr noundef %2, ptr nocapture noundef writeonly %3) local_unnamed_addr #6 personality ptr @__gxx_personality_v0 {
  %5 = invoke fastcc noundef ptr @_ZL23jsonnet_fmt_snippet_auxP9JsonnetVmPKcS2_Pi(ptr noundef %0, ptr noundef %1, ptr noundef %2, ptr noundef %3)
          to label %30 unwind label %6

6:                                                ; preds = %4
  %7 = landingpad { ptr, i32 }
          catch ptr @_ZTISt9bad_alloc
          catch ptr @_ZTISt9exception
  %8 = extractvalue { ptr, i32 } %7, 0
  %9 = extractvalue { ptr, i32 } %7, 1
  %10 = tail call i32 @llvm.eh.typeid.for(ptr nonnull @_ZTISt9bad_alloc) #30
  %11 = icmp eq i32 %9, %10
  br i1 %11, label %.unreachable, label %13

.unreachable:                                     ; preds = %6
  %12 = tail call ptr @__cxa_begin_catch(ptr %8) #30
  tail call fastcc void @_ZL12memory_panicv()
  unreachable

13:                                               ; preds = %6
  %14 = tail call i32 @llvm.eh.typeid.for(ptr nonnull @_ZTISt9exception) #30
  %15 = icmp eq i32 %9, %14
  br i1 %15, label %16, label %31

16:                                               ; preds = %13
  %17 = tail call ptr @__cxa_begin_catch(ptr %8) #30
  %18 = invoke noundef nonnull align 8 dereferenceable(8) ptr @_ZStlsISt11char_traitsIcEERSt13basic_ostreamIcT_ES5_PKc(ptr noundef nonnull align 8 dereferenceable(8) @_ZSt4cerr, ptr noundef nonnull @.str.8)
          to label %19 unwind label %28

19:                                               ; preds = %16
  %20 = load ptr, ptr %17, align 8
  %21 = getelementptr inbounds i8, ptr %20, i64 16
  %22 = load ptr, ptr %21, align 8
  %23 = tail call noundef ptr %22(ptr noundef nonnull align 8 dereferenceable(8) %17) #30
  %24 = invoke noundef nonnull align 8 dereferenceable(8) ptr @_ZStlsISt11char_traitsIcEERSt13basic_ostreamIcT_ES5_PKc(ptr noundef nonnull align 8 dereferenceable(8) %18, ptr noundef %23)
          to label %25 unwind label %28

25:                                               ; preds = %19
  %26 = invoke noundef nonnull align 8 dereferenceable(8) ptr @_ZNSolsEPFRSoS_E(ptr noundef nonnull align 8 dereferenceable(8) %24, ptr noundef nonnull @_ZSt4endlIcSt11char_traitsIcEERSt13basic_ostreamIT_T0_ES6_)
          to label %27 unwind label %28

27:                                               ; preds = %25
  tail call void @abort() #29
  unreachable

28:                                               ; preds = %25, %19, %16
  %29 = landingpad { ptr, i32 }
          cleanup
  invoke void @__cxa_end_catch()
          to label %31 unwind label %32

30:                                               ; preds = %4
  ret ptr %5

31:                                               ; preds = %28, %13
  %.merged = phi { ptr, i32 } [ %29, %28 ], [ %7, %13 ]
  resume { ptr, i32 } %.merged

32:                                               ; preds = %28
  %33 = landingpad { ptr, i32 }
          catch ptr null
  %34 = extractvalue { ptr, i32 } %33, 0
  tail call void @__clang_call_terminate(ptr %34) #29
  unreachable
}